target datalayout = "e-m:e-p270:32:32-p271:32:32-p272:64:64-i64:64-i128:128-f80:128-n8:16:32:64-S128"
target triple = "x86_64-pc-linux-gnu"

@hf_smb2_app_instance_version_struct_size = internal global i32 0, align 4
@hf_smb2_app_instance_version_reserved = internal global i32 0, align 4
@hf_smb2_app_instance_version_padding = internal global i32 0, align 4
@hf_smb2_app_instance_version_high = internal global i32 0, align 4
@hf_smb2_app_instance_version_low = internal global i32 0, align 4
@ett_smb2_app_instance_version_buffer = internal global i32 0, align 4
@ett_smb2_app_instance_version_buffer_version = internal global i32 0, align 4
@.str.2242 = private unnamed_addr constant [30 x i8] c": CREATE APP INSTANCE VERSION\00", align 1
@.str.2243 = private unnamed_addr constant [21 x i8] c"APP INSTANCE VERSION\00", align 1
@.str.2244 = private unnamed_addr constant [8 x i8] c"version\00", align 1
@.str.2245 = private unnamed_addr constant [11 x i8] c" : %lu.%lu\00", align 1
@.str.2246 = private unnamed_addr constant [19 x i8] c", version: %lu.%lu\00", align 1

; Function Attrs: null_pointer_is_valid sspstrong uwtable
define internal void @dissect_smb2_app_instance_version_buffer_request(ptr noundef %0, ptr noundef %1, ptr noundef %2, ptr noundef %3) #0 {
  %5 = alloca ptr, align 8
  %6 = alloca ptr, align 8
  %7 = alloca ptr, align 8
  %8 = alloca ptr, align 8
  %9 = alloca i32, align 4
  %10 = alloca ptr, align 8
  %11 = alloca ptr, align 8
  %12 = alloca ptr, align 8
  %13 = alloca i64, align 8
  %14 = alloca i64, align 8
  store ptr %0, ptr %5, align 8
  store ptr %1, ptr %6, align 8
  store ptr %2, ptr %7, align 8
  store ptr %3, ptr %8, align 8
  call void @llvm.lifetime.start.p0(i64 4, ptr %9) #13
  store i32 0, ptr %9, align 4
  call void @llvm.lifetime.start.p0(i64 8, ptr %10) #13
  store ptr null, ptr %10, align 8
  call void @llvm.lifetime.start.p0(i64 8, ptr %11) #13
  call void @llvm.lifetime.start.p0(i64 8, ptr %12) #13
  call void @llvm.lifetime.start.p0(i64 8, ptr %13) #13
  call void @llvm.lifetime.start.p0(i64 8, ptr %14) #13
  %15 = load ptr, ptr %7, align 8
  %16 = call ptr @proto_tree_get_parent(ptr noundef %15)
  store ptr %16, ptr %10, align 8
  %17 = load ptr, ptr %10, align 8
  call void (ptr, ptr, ...) @proto_item_append_text(ptr noundef %17, ptr noundef @.str.2242)
  %18 = load ptr, ptr %7, align 8
  %19 = load ptr, ptr %5, align 8
  %20 = load i32, ptr %9, align 4
  %21 = load i32, ptr @ett_smb2_app_instance_version_buffer, align 4
  %22 = call ptr @proto_tree_add_subtree(ptr noundef %18, ptr noundef %19, i32 noundef %20, i32 noundef -1, i32 noundef %21, ptr noundef null, ptr noundef @.str.2243)
  store ptr %22, ptr %11, align 8
  %23 = load ptr, ptr %11, align 8
  %24 = load i32, ptr @hf_smb2_app_instance_version_struct_size, align 4
  %25 = load ptr, ptr %5, align 8
  %26 = load i32, ptr %9, align 4
  %27 = call ptr @proto_tree_add_item(ptr noundef %23, i32 noundef %24, ptr noundef %25, i32 noundef %26, i32 noundef 2, i32 noundef -2147483648)
  %28 = load i32, ptr %9, align 4
  %29 = add i32 %28, 2
  store i32 %29, ptr %9, align 4
  %30 = load ptr, ptr %11, align 8
  %31 = load i32, ptr @hf_smb2_app_instance_version_reserved, align 4
  %32 = load ptr, ptr %5, align 8
  %33 = load i32, ptr %9, align 4
  %34 = call ptr @proto_tree_add_item(ptr noundef %30, i32 noundef %31, ptr noundef %32, i32 noundef %33, i32 noundef 2, i32 noundef -2147483648)
  %35 = load i32, ptr %9, align 4
  %36 = add i32 %35, 2
  store i32 %36, ptr %9, align 4
  %37 = load ptr, ptr %11, align 8
  %38 = load i32, ptr @hf_smb2_app_instance_version_padding, align 4
  %39 = load ptr, ptr %5, align 8
  %40 = load i32, ptr %9, align 4
  %41 = call ptr @proto_tree_add_item(ptr noundef %37, i32 noundef %38, ptr noundef %39, i32 noundef %40, i32 noundef 4, i32 noundef -2147483648)
  %42 = load i32, ptr %9, align 4
  %43 = add i32 %42, 4
  store i32 %43, ptr %9, align 4
  %44 = load ptr, ptr %11, align 8
  %45 = load ptr, ptr %5, align 8
  %46 = load i32, ptr %9, align 4
  %47 = load i32, ptr @ett_smb2_app_instance_version_buffer_version, align 4
  %48 = call ptr @proto_tree_add_subtree(ptr noundef %44, ptr noundef %45, i32 noundef %46, i32 noundef -1, i32 noundef %47, ptr noundef null, ptr noundef @.str.2244)
  store ptr %48, ptr %12, align 8
  %49 = load ptr, ptr %12, align 8
  %50 = load i32, ptr @hf_smb2_app_instance_version_high, align 4
  %51 = load ptr, ptr %5, align 8
  %52 = load i32, ptr %9, align 4
  %53 = call ptr @proto_tree_add_item_ret_uint64(ptr noundef %49, i32 noundef %50, ptr noundef %51, i32 noundef %52, i32 noundef 8, i32 noundef -2147483648, ptr noundef %13)
  %54 = load i32, ptr %9, align 4
  %55 = add i32 %54, 8
  store i32 %55, ptr %9, align 4
  %56 = load ptr, ptr %12, align 8
  %57 = load i32, ptr @hf_smb2_app_instance_version_low, align 4
  %58 = load ptr, ptr %5, align 8
  %59 = load i32, ptr %9, align 4
  %60 = call ptr @proto_tree_add_item_ret_uint64(ptr noundef %56, i32 noundef %57, ptr noundef %58, i32 noundef %59, i32 noundef 8, i32 noundef -2147483648, ptr noundef %14)
  %61 = load ptr, ptr %12, align 8
  %62 = load i64, ptr %13, align 8
  %63 = load i64, ptr %14, align 8
  call void (ptr, ptr, ...) @proto_item_append_text(ptr noundef %61, ptr noundef @.str.2245, i64 noundef %62, i64 noundef %63)
  %64 = load ptr, ptr %11, align 8
  %65 = load i64, ptr %13, align 8
  %66 = load i64, ptr %14, align 8
  call void (ptr, ptr, ...) @proto_item_append_text(ptr noundef %64, ptr noundef @.str.2246, i64 noundef %65, i64 noundef %66)
  call void @llvm.lifetime.end.p0(i64 8, ptr %14) #13
  call void @llvm.lifetime.end.p0(i64 8, ptr %13) #13
  call void @llvm.lifetime.end.p0(i64 8, ptr %12) #13
  call void @llvm.lifetime.end.p0(i64 8, ptr %11) #13
  call void @llvm.lifetime.end.p0(i64 8, ptr %10) #13
  call void @llvm.lifetime.end.p0(i64 4, ptr %9) #13
  ret void
}