; Function Attrs: null_pointer_is_valid sspstrong uwtable
define internal void @dissect_smb2_app_instance_version_buffer_request(ptr noundef %0, ptr readnone captures(none) %1, ptr noundef %2, ptr readnone captures(none) %3) #0 {
  %5 = alloca i64, align 8
  %6 = alloca i64, align 8
  call void @llvm.lifetime.start.p0(i64 8, ptr nonnull %5) #13
  call void @llvm.lifetime.start.p0(i64 8, ptr nonnull %6) #13
  %7 = tail call ptr @proto_tree_get_parent(ptr noundef %2)
  tail call void (ptr, ptr, ...) @proto_item_append_text(ptr noundef %7, ptr noundef nonnull @.str.2242)
  %8 = load i32, ptr @ett_smb2_app_instance_version_buffer, align 4
  %9 = tail call ptr @proto_tree_add_subtree(ptr noundef %2, ptr noundef %0, i32 noundef 0, i32 noundef -1, i32 noundef %8, ptr noundef null, ptr noundef nonnull @.str.2243)
  %10 = load i32, ptr @hf_smb2_app_instance_version_struct_size, align 4
  %11 = tail call ptr @proto_tree_add_item(ptr noundef %9, i32 noundef %10, ptr noundef %0, i32 noundef 0, i32 noundef 2, i32 noundef -2147483648)
  %12 = load i32, ptr @hf_smb2_app_instance_version_reserved, align 4
  %13 = tail call ptr @proto_tree_add_item(ptr noundef %9, i32 noundef %12, ptr noundef %0, i32 noundef 2, i32 noundef 2, i32 noundef -2147483648)
  %14 = load i32, ptr @hf_smb2_app_instance_version_padding, align 4
  %15 = tail call ptr @proto_tree_add_item(ptr noundef %9, i32 noundef %14, ptr noundef %0, i32 noundef 4, i32 noundef 4, i32 noundef -2147483648)
  %16 = load i32, ptr @ett_smb2_app_instance_version_buffer_version, align 4
  %17 = tail call ptr @proto_tree_add_subtree(ptr noundef %9, ptr noundef %0, i32 noundef 8, i32 noundef -1, i32 noundef %16, ptr noundef null, ptr noundef nonnull @.str.2244)
  %18 = load i32, ptr @hf_smb2_app_instance_version_high, align 4
  %19 = call ptr @proto_tree_add_item_ret_uint64(ptr noundef %17, i32 noundef %18, ptr noundef %0, i32 noundef 8, i32 noundef 8, i32 noundef -2147483648, ptr noundef nonnull %5)
  %20 = load i32, ptr @hf_smb2_app_instance_version_low, align 4
  %21 = call ptr @proto_tree_add_item_ret_uint64(ptr noundef %17, i32 noundef %20, ptr noundef %0, i32 noundef 16, i32 noundef 8, i32 noundef -2147483648, ptr noundef nonnull %6)
  %22 = load i64, ptr %5, align 8
  %23 = load i64, ptr %6, align 8
  call void (ptr, ptr, ...) @proto_item_append_text(ptr noundef %17, ptr noundef nonnull @.str.2245, i64 noundef %22, i64 noundef %23)
  %24 = load i64, ptr %5, align 8
  %25 = load i64, ptr %6, align 8
  call void (ptr, ptr, ...) @proto_item_append_text(ptr noundef %9, ptr noundef nonnull @.str.2246, i64 noundef %24, i64 noundef %25)
  call void @llvm.lifetime.end.p0(i64 8, ptr nonnull %6) #13
  call void @llvm.lifetime.end.p0(i64 8, ptr nonnull %5) #13
  ret void
}